(lp0
(S'teste/download.jpeg.GNNCRY'
p1
S'UPSIrQd5hEkmg+ligHoZ+60bezrIAzJYPOJPTWcQ640='
p2
tp3
a(S'teste/teste.txt.GNNCRY'
p4
S'3VXSSp68ELpmHuXNiPdzzJt2rUzwLpQjZKq0yIqOMYg='
p5
tp6
a(S'teste/teste2.txt.GNNCRY'
p7
S'9TFivBM6pulrwCrhW3+EwHjzFPD4AxEccBZHanKy/tI='
p8
tp9
a.